; Function Attrs: nounwind uwtable
define ptr @Abc_BufFindNonBuffDriver(ptr noundef readnone captures(none) %0, ptr noundef %1) local_unnamed_addr #2 {
  %3 = getelementptr i8, ptr %1, i64 20
  %.val9 = load i32, ptr %3, align 4
  %4 = and i32 %.val9, 15
  %.not10 = icmp eq i32 %4, 7
  br i1 %.not10, label %.lr.ph, label %tailrecurse._crit_edge

.lr.ph:                                           ; preds = %2, %tailrecurse
  %.tr811 = phi ptr [ %11, %tailrecurse ], [ %1, %2 ]
  %5 = tail call i32 @Abc_NodeIsBuf(ptr noundef nonnull %.tr811) #17
  %.not5 = icmp eq i32 %5, 0
  br i1 %.not5, label %tailrecurse._crit_edge, label %tailrecurse

tailrecurse:                                      ; preds = %.lr.ph
  %.val6 = load ptr, ptr %.tr811, align 8, !tbaa !31
  %6 = getelementptr i8, ptr %.tr811, i64 32
  %.val7 = load ptr, ptr %6, align 8, !tbaa !32
  %7 = getelementptr i8, ptr %.val6, i64 32
  %.val6.val = load ptr, ptr %7, align 8, !tbaa !3
  %.val7.val = load i32, ptr %.val7, align 4, !tbaa !33
  %8 = getelementptr i8, ptr %.val6.val, i64 8
  %.val6.val.val = load ptr, ptr %8, align 8, !tbaa !26
  %9 = sext i32 %.val7.val to i64
  %10 = getelementptr inbounds ptr, ptr %.val6.val.val, i64 %9
  %11 = load ptr, ptr %10, align 8, !tbaa !27
  %12 = getelementptr i8, ptr %11, i64 20
  %.val = load i32, ptr %12, align 4
  %13 = and i32 %.val, 15
  %.not = icmp eq i32 %13, 7
  br i1 %.not, label %.lr.ph, label %tailrecurse._crit_edge

tailrecurse._crit_edge:                           ; preds = %.lr.ph, %tailrecurse, %2
  %.tr8.lcssa = phi ptr [ %1, %2 ], [ %11, %tailrecurse ], [ %.tr811, %.lr.ph ]
  ret ptr %.tr8.lcssa
}